target datalayout = "e-m:e-p270:32:32-p271:32:32-p272:64:64-i64:64-i128:128-f80:128-n8:16:32:64-S128"
target triple = "x86_64-pc-linux-gnu"

%struct.CVodeMemRec = type { double, ptr, ptr, i32, i32, i32, double, double, ptr, i32, ptr, ptr, i32, ptr, i32, i32, double, double, ptr, i32, i32, i32, ptr, ptr, ptr, i32, i32, ptr, ptr, ptr, i32, double, i32, i32, double, ptr, ptr, i32, ptr, ptr, i32, i32, i32, double, ptr, ptr, [13 x ptr], ptr, ptr, ptr, ptr, ptr, [13 x ptr], ptr, ptr, ptr, ptr, [13 x ptr], ptr, ptr, ptr, ptr, ptr, i32, [13 x ptr], ptr, ptr, ptr, ptr, ptr, i32, double, i32, i32, i32, i32, i32, double, double, double, double, double, double, double, double, [14 x double], [6 x double], [13 x double], double, double, double, double, double, double, double, double, double, double, double, i32, ptr, i32, i64, i32, i32, i32, i32, i32, double, double, double, i64, i64, i64, i64, i64, i64, i64, i64, i64, ptr, i64, i64, ptr, i64, i64, i64, i64, i64, i64, i32, i64, i64, i64, i64, i64, i64, double, double, double, ptr, ptr, ptr, ptr, ptr, i32, i32, i64, double, double, double, i32, double, i32, i32, i32, i32, i32, i32, i32, i32, i32, i32, i32, i32, i32, i32, i32, i32, ptr, ptr, ptr, i32, [6 x [4 x double]], i32, i64, ptr, i32, ptr, ptr, double, double, double, ptr, ptr, ptr, double, double, i32, i32, i64, ptr, i32, i32, ptr, i32 }
%struct.CVadjMemRec = type { double, double, i32, i32, double, ptr, i32, ptr, i32, ptr, i32, ptr, i64, ptr, i64, i32, ptr, ptr, ptr, ptr, i32, i32, i32, i32, [13 x ptr], [13 x ptr], [13 x double], ptr, ptr, i64 }
%struct.DtpntMemRec = type { double, ptr }
%struct.PolynomialDataMemRec = type { ptr, ptr, i32 }

; Function Attrs: nounwind uwtable
define internal i32 @CVApolynomialStorePnt(ptr noundef %0, ptr noundef %1) #0 {
  %3 = alloca ptr, align 8
  %4 = alloca ptr, align 8
  %5 = alloca ptr, align 8
  %6 = alloca ptr, align 8
  %7 = alloca i32, align 4
  store ptr %0, ptr %3, align 8, !tbaa !11
  store ptr %1, ptr %4, align 8, !tbaa !34
  call void @llvm.lifetime.start.p0(i64 8, ptr %5) #5
  call void @llvm.lifetime.start.p0(i64 8, ptr %6) #5
  call void @llvm.lifetime.start.p0(i64 4, ptr %7) #5
  %8 = load ptr, ptr %3, align 8, !tbaa !11
  %9 = getelementptr inbounds nuw %struct.CVodeMemRec, ptr %8, i32 0, i32 194
  %10 = load ptr, ptr %9, align 8, !tbaa !15
  store ptr %10, ptr %5, align 8, !tbaa !13
  %11 = load ptr, ptr %4, align 8, !tbaa !34
  %12 = getelementptr inbounds nuw %struct.DtpntMemRec, ptr %11, i32 0, i32 1
  %13 = load ptr, ptr %12, align 8, !tbaa !66
  store ptr %13, ptr %6, align 8, !tbaa !86
  %14 = load ptr, ptr %3, align 8, !tbaa !11
  %15 = getelementptr inbounds nuw %struct.CVodeMemRec, ptr %14, i32 0, i32 46
  %16 = getelementptr inbounds [13 x ptr], ptr %15, i64 0, i64 0
  %17 = load ptr, ptr %16, align 8, !tbaa !72
  %18 = load ptr, ptr %6, align 8, !tbaa !86
  %19 = getelementptr inbounds nuw %struct.PolynomialDataMemRec, ptr %18, i32 0, i32 0
  %20 = load ptr, ptr %19, align 8, !tbaa !88
  call void @N_VScale(double noundef 1.000000e+00, ptr noundef %17, ptr noundef %20)
  %21 = load ptr, ptr %5, align 8, !tbaa !13
  %22 = getelementptr inbounds nuw %struct.CVadjMemRec, ptr %21, i32 0, i32 22
  %23 = load i32, ptr %22, align 8, !tbaa !44
  %24 = icmp ne i32 %23, 0
  br i1 %24, label %25, label %52

25:                                               ; preds = %2
  store i32 0, ptr %7, align 4, !tbaa !9
  br label %26

26:                                               ; preds = %48, %25
  %27 = load i32, ptr %7, align 4, !tbaa !9
  %28 = load ptr, ptr %3, align 8, !tbaa !11
  %29 = getelementptr inbounds nuw %struct.CVodeMemRec, ptr %28, i32 0, i32 20
  %30 = load i32, ptr %29, align 4, !tbaa !56
  %31 = icmp slt i32 %27, %30
  br i1 %31, label %32, label %51

32:                                               ; preds = %26
  %33 = load ptr, ptr %3, align 8, !tbaa !11
  %34 = getelementptr inbounds nuw %struct.CVodeMemRec, ptr %33, i32 0, i32 57
  %35 = getelementptr inbounds [13 x ptr], ptr %34, i64 0, i64 0
  %36 = load ptr, ptr %35, align 8, !tbaa !73
  %37 = load i32, ptr %7, align 4, !tbaa !9
  %38 = sext i32 %37 to i64
  %39 = getelementptr inbounds ptr, ptr %36, i64 %38
  %40 = load ptr, ptr %39, align 8, !tbaa !72
  %41 = load ptr, ptr %6, align 8, !tbaa !86
  %42 = getelementptr inbounds nuw %struct.PolynomialDataMemRec, ptr %41, i32 0, i32 1
  %43 = load ptr, ptr %42, align 8, !tbaa !90
  %44 = load i32, ptr %7, align 4, !tbaa !9
  %45 = sext i32 %44 to i64
  %46 = getelementptr inbounds ptr, ptr %43, i64 %45
  %47 = load ptr, ptr %46, align 8, !tbaa !72
  call void @N_VScale(double noundef 1.000000e+00, ptr noundef %40, ptr noundef %47)
  br label %48

48:                                               ; preds = %32
  %49 = load i32, ptr %7, align 4, !tbaa !9
  %50 = add nsw i32 %49, 1
  store i32 %50, ptr %7, align 4, !tbaa !9
  br label %26, !llvm.loop !109

51:                                               ; preds = %26
  br label %52

52:                                               ; preds = %51, %2
  %53 = load ptr, ptr %3, align 8, !tbaa !11
  %54 = getelementptr inbounds nuw %struct.CVodeMemRec, ptr %53, i32 0, i32 146
  %55 = load i32, ptr %54, align 4, !tbaa !110
  %56 = load ptr, ptr %6, align 8, !tbaa !86
  %57 = getelementptr inbounds nuw %struct.PolynomialDataMemRec, ptr %56, i32 0, i32 2
  store i32 %55, ptr %57, align 8, !tbaa !97
  call void @llvm.lifetime.end.p0(i64 4, ptr %7) #5
  call void @llvm.lifetime.end.p0(i64 8, ptr %6) #5
  call void @llvm.lifetime.end.p0(i64 8, ptr %5) #5
  ret i32 0
}