; Function Attrs: nounwind uwtable
define internal noundef i32 @CVApolynomialStorePnt(ptr noundef readonly captures(none) %0, ptr noundef readonly captures(none) %1) #0 {
  %3 = getelementptr inbounds nuw i8, ptr %0, i64 2192
  %4 = load ptr, ptr %3, align 8, !tbaa !3
  %5 = getelementptr inbounds nuw i8, ptr %1, i64 8
  %6 = load ptr, ptr %5, align 8, !tbaa !57
  %7 = getelementptr inbounds nuw i8, ptr %0, i64 320
  %8 = load ptr, ptr %7, align 8, !tbaa !69
  %9 = load ptr, ptr %6, align 8, !tbaa !82
  tail call void @N_VScale(double noundef 1.000000e+00, ptr noundef %8, ptr noundef %9) #8
  %10 = getelementptr inbounds nuw i8, ptr %4, i64 160
  %11 = load i32, ptr %10, align 8, !tbaa !38
  %.not = icmp eq i32 %11, 0
  br i1 %.not, label %.loopexit, label %.preheader

.preheader:                                       ; preds = %2
  %12 = getelementptr inbounds nuw i8, ptr %0, i64 140
  %13 = load i32, ptr %12, align 4, !tbaa !50
  %14 = icmp sgt i32 %13, 0
  br i1 %14, label %.lr.ph, label %.loopexit

.lr.ph:                                           ; preds = %.preheader
  %15 = getelementptr inbounds nuw i8, ptr %0, i64 600
  %16 = getelementptr inbounds nuw i8, ptr %6, i64 8
  br label %17

17:                                               ; preds = %.lr.ph, %17
  %indvars.iv = phi i64 [ 0, %.lr.ph ], [ %indvars.iv.next, %17 ]
  %18 = load ptr, ptr %15, align 8, !tbaa !71
  %19 = getelementptr inbounds nuw ptr, ptr %18, i64 %indvars.iv
  %20 = load ptr, ptr %19, align 8, !tbaa !69
  %21 = load ptr, ptr %16, align 8, !tbaa !84
  %22 = getelementptr inbounds nuw ptr, ptr %21, i64 %indvars.iv
  %23 = load ptr, ptr %22, align 8, !tbaa !69
  tail call void @N_VScale(double noundef 1.000000e+00, ptr noundef %20, ptr noundef %23) #8
  %indvars.iv.next = add nuw nsw i64 %indvars.iv, 1
  %24 = load i32, ptr %12, align 4, !tbaa !50
  %25 = sext i32 %24 to i64
  %26 = icmp slt i64 %indvars.iv.next, %25
  br i1 %26, label %17, label %.loopexit, !llvm.loop !101

.loopexit:                                        ; preds = %17, %.preheader, %2
  %27 = getelementptr inbounds nuw i8, ptr %0, i64 1708
  %28 = load i32, ptr %27, align 4, !tbaa !102
  %29 = getelementptr inbounds nuw i8, ptr %6, i64 16
  store i32 %28, ptr %29, align 8, !tbaa !89
  ret i32 0
}